; Function Attrs: nounwind uwtable
define dso_local range(i32 -30, 1) i32 @archive_write_add_filter_bzip2(ptr noundef %0) local_unnamed_addr #0 {
  %2 = tail call ptr @__archive_write_allocate_filter(ptr noundef %0) #9
  %3 = tail call i32 @__archive_check_magic(ptr noundef %0, i32 noundef -1329217314, i32 noundef 1, ptr noundef nonnull @.str) #9
  %.not = icmp eq i32 %3, -30
  br i1 %.not, label %16, label %4

4:                                                ; preds = %1
  %5 = tail call noalias dereferenceable_or_null(112) ptr @calloc(i64 noundef 1, i64 noundef 112) #10
  %6 = icmp eq ptr %5, null
  br i1 %6, label %7, label %8

7:                                                ; preds = %4
  tail call void (ptr, i32, ptr, ...) @archive_set_error(ptr noundef %0, i32 noundef 12, ptr noundef nonnull @.str.1) #9
  br label %16

8:                                                ; preds = %4
  store i32 9, ptr %5, align 8, !tbaa !4
  %9 = getelementptr inbounds nuw i8, ptr %2, i64 72
  store ptr %5, ptr %9, align 8, !tbaa !13
  %10 = getelementptr inbounds nuw i8, ptr %2, i64 24
  store ptr @archive_compressor_bzip2_options, ptr %10, align 8, !tbaa !17
  %11 = getelementptr inbounds nuw i8, ptr %2, i64 56
  store ptr @archive_compressor_bzip2_close, ptr %11, align 8, !tbaa !18
  %12 = getelementptr inbounds nuw i8, ptr %2, i64 64
  store ptr @archive_compressor_bzip2_free, ptr %12, align 8, !tbaa !19
  %13 = getelementptr inbounds nuw i8, ptr %2, i64 32
  store ptr @archive_compressor_bzip2_open, ptr %13, align 8, !tbaa !20
  %14 = getelementptr inbounds nuw i8, ptr %2, i64 88
  store i32 2, ptr %14, align 8, !tbaa !21
  %15 = getelementptr inbounds nuw i8, ptr %2, i64 80
  store ptr @.str.2, ptr %15, align 8, !tbaa !22
  br label %16

16:                                               ; preds = %1, %8, %7
  %.1 = phi i32 [ -30, %7 ], [ 0, %8 ], [ -30, %1 ]
  ret i32 %.1
}